target datalayout = "e-m:e-p270:32:32-p271:32:32-p272:64:64-i64:64-i128:128-f80:128-n8:16:32:64-S128"
target triple = "x86_64-pc-linux-gnu"

%struct.TupleTableSlotOps = type { i64, ptr, ptr, ptr, ptr, ptr, ptr, ptr, ptr, ptr, ptr, ptr, ptr }
%struct.WindowAggState = type { %struct.ScanState, ptr, i32, i32, ptr, ptr, ptr, ptr, ptr, i32, i32, i32, i32, i64, i64, i64, i64, ptr, i64, i64, i32, i32, ptr, ptr, i64, i64, %struct.FmgrInfo, %struct.FmgrInfo, i32, i8, i8, i8, i8, ptr, i64, i64, i64, i64, i64, ptr, ptr, ptr, ptr, i8, i8, i8, i8, i8, i8, i8, ptr, ptr, ptr, ptr, ptr, ptr }
%struct.ScanState = type { %struct.PlanState, ptr, ptr, ptr }
%struct.PlanState = type { i32, ptr, ptr, ptr, ptr, ptr, ptr, ptr, ptr, ptr, ptr, ptr, ptr, ptr, ptr, ptr, ptr, ptr, i8, ptr, ptr, ptr, ptr, ptr, i8, i8, i8, i8, i8, i8, i8, i8 }
%struct.FmgrInfo = type { ptr, i32, i16, i8, i8, i8, ptr, ptr, ptr }
%struct.TupleTableSlot = type { i32, i16, i16, ptr, ptr, ptr, ptr, ptr, %struct.ItemPointerData, i32 }
%struct.ItemPointerData = type { %struct.BlockIdData, i16 }
%struct.BlockIdData = type { i16, i16 }
%struct.ExprContext = type { i32, ptr, ptr, ptr, ptr, ptr, ptr, ptr, ptr, ptr, i64, i8, i64, i8, ptr, ptr, ptr, ptr }

; Function Attrs: inlinehint nounwind uwtable
define internal ptr @ExecClearTuple(ptr noundef %0) #2 {
  %2 = alloca ptr, align 8
  store ptr %0, ptr %2, align 8
  %3 = load ptr, ptr %2, align 8
  %4 = getelementptr inbounds nuw %struct.TupleTableSlot, ptr %3, i32 0, i32 3
  %5 = load ptr, ptr %4, align 8
  %6 = getelementptr inbounds nuw %struct.TupleTableSlotOps, ptr %5, i32 0, i32 3
  %7 = load ptr, ptr %6, align 8
  %8 = load ptr, ptr %2, align 8
  call void %7(ptr noundef %8)
  %9 = load ptr, ptr %2, align 8
  ret ptr %9
}

; Function Attrs: nounwind uwtable
define dso_local void @ExecReScanWindowAgg(ptr noundef %0) #0 {
  %2 = alloca ptr, align 8
  %3 = alloca ptr, align 8
  %4 = alloca ptr, align 8
  %5 = alloca ptr, align 8
  %6 = alloca i32, align 4
  %7 = alloca i64, align 8
  %8 = alloca ptr, align 8
  %9 = alloca ptr, align 8
  %10 = alloca ptr, align 8
  %11 = alloca i32, align 4
  %12 = alloca i64, align 8
  %13 = alloca ptr, align 8
  %14 = alloca ptr, align 8
  store ptr %0, ptr %2, align 8
  call void @llvm.lifetime.start.p0(i64 8, ptr %3) #8
  %15 = load ptr, ptr %2, align 8
  %16 = getelementptr inbounds nuw %struct.PlanState, ptr %15, i32 0, i32 9
  %17 = load ptr, ptr %16, align 8
  store ptr %17, ptr %3, align 8
  call void @llvm.lifetime.start.p0(i64 8, ptr %4) #8
  %18 = load ptr, ptr %2, align 8
  %19 = getelementptr inbounds nuw %struct.WindowAggState, ptr %18, i32 0, i32 0
  %20 = getelementptr inbounds nuw %struct.ScanState, ptr %19, i32 0, i32 0
  %21 = getelementptr inbounds nuw %struct.PlanState, ptr %20, i32 0, i32 16
  %22 = load ptr, ptr %21, align 8
  store ptr %22, ptr %4, align 8
  %23 = load ptr, ptr %2, align 8
  %24 = getelementptr inbounds nuw %struct.WindowAggState, ptr %23, i32 0, i32 20
  store i32 1, ptr %24, align 8
  %25 = load ptr, ptr %2, align 8
  %26 = getelementptr inbounds nuw %struct.WindowAggState, ptr %25, i32 0, i32 43
  store i8 1, ptr %26, align 8
  %27 = load ptr, ptr %2, align 8
  call void @release_partition(ptr noundef %27)
  %28 = load ptr, ptr %2, align 8
  %29 = getelementptr inbounds nuw %struct.WindowAggState, ptr %28, i32 0, i32 0
  %30 = getelementptr inbounds nuw %struct.ScanState, ptr %29, i32 0, i32 3
  %31 = load ptr, ptr %30, align 8
  %32 = call ptr @ExecClearTuple(ptr noundef %31)
  %33 = load ptr, ptr %2, align 8
  %34 = getelementptr inbounds nuw %struct.WindowAggState, ptr %33, i32 0, i32 50
  %35 = load ptr, ptr %34, align 8
  %36 = call ptr @ExecClearTuple(ptr noundef %35)
  %37 = load ptr, ptr %2, align 8
  %38 = getelementptr inbounds nuw %struct.WindowAggState, ptr %37, i32 0, i32 53
  %39 = load ptr, ptr %38, align 8
  %40 = call ptr @ExecClearTuple(ptr noundef %39)
  %41 = load ptr, ptr %2, align 8
  %42 = getelementptr inbounds nuw %struct.WindowAggState, ptr %41, i32 0, i32 54
  %43 = load ptr, ptr %42, align 8
  %44 = call ptr @ExecClearTuple(ptr noundef %43)
  %45 = load ptr, ptr %2, align 8
  %46 = getelementptr inbounds nuw %struct.WindowAggState, ptr %45, i32 0, i32 55
  %47 = load ptr, ptr %46, align 8
  %48 = call ptr @ExecClearTuple(ptr noundef %47)
  %49 = load ptr, ptr %2, align 8
  %50 = getelementptr inbounds nuw %struct.WindowAggState, ptr %49, i32 0, i32 51
  %51 = load ptr, ptr %50, align 8
  %52 = icmp ne ptr %51, null
  br i1 %52, label %53, label %58

53:                                               ; preds = %1
  %54 = load ptr, ptr %2, align 8
  %55 = getelementptr inbounds nuw %struct.WindowAggState, ptr %54, i32 0, i32 51
  %56 = load ptr, ptr %55, align 8
  %57 = call ptr @ExecClearTuple(ptr noundef %56)
  br label %58

58:                                               ; preds = %53, %1
  %59 = load ptr, ptr %2, align 8
  %60 = getelementptr inbounds nuw %struct.WindowAggState, ptr %59, i32 0, i32 52
  %61 = load ptr, ptr %60, align 8
  %62 = icmp ne ptr %61, null
  br i1 %62, label %63, label %68

63:                                               ; preds = %58
  %64 = load ptr, ptr %2, align 8
  %65 = getelementptr inbounds nuw %struct.WindowAggState, ptr %64, i32 0, i32 52
  %66 = load ptr, ptr %65, align 8
  %67 = call ptr @ExecClearTuple(ptr noundef %66)
  br label %68

68:                                               ; preds = %63, %58
  br label %69

69:                                               ; preds = %68
  call void @llvm.lifetime.start.p0(i64 8, ptr %5) #8
  %70 = load ptr, ptr %4, align 8
  %71 = getelementptr inbounds nuw %struct.ExprContext, ptr %70, i32 0, i32 8
  %72 = load ptr, ptr %71, align 8
  store ptr %72, ptr %5, align 8
  call void @llvm.lifetime.start.p0(i64 4, ptr %6) #8
  store i32 0, ptr %6, align 4
  call void @llvm.lifetime.start.p0(i64 8, ptr %7) #8
  %73 = load ptr, ptr %2, align 8
  %74 = getelementptr inbounds nuw %struct.WindowAggState, ptr %73, i32 0, i32 2
  %75 = load i32, ptr %74, align 8
  %76 = sext i32 %75 to i64
  %77 = mul i64 8, %76
  store i64 %77, ptr %7, align 8
  %78 = load ptr, ptr %5, align 8
  %79 = ptrtoint ptr %78 to i64
  %80 = and i64 %79, 7
  %81 = icmp eq i64 %80, 0
  br i1 %81, label %82, label %105

82:                                               ; preds = %69
  %83 = load i64, ptr %7, align 8
  %84 = and i64 %83, 7
  %85 = icmp eq i64 %84, 0
  br i1 %85, label %86, label %105

86:                                               ; preds = %82
  %87 = load i32, ptr %6, align 4
  %88 = icmp eq i32 %87, 0
  br i1 %88, label %89, label %105

89:                                               ; preds = %86
  %90 = load i64, ptr %7, align 8
  %91 = icmp ule i64 %90, 1024
  br i1 %91, label %92, label %105

92:                                               ; preds = %89
  call void @llvm.lifetime.start.p0(i64 8, ptr %8) #8
  %93 = load ptr, ptr %5, align 8
  store ptr %93, ptr %8, align 8
  call void @llvm.lifetime.start.p0(i64 8, ptr %9) #8
  %94 = load ptr, ptr %8, align 8
  %95 = load i64, ptr %7, align 8
  %96 = getelementptr inbounds nuw i8, ptr %94, i64 %95
  store ptr %96, ptr %9, align 8
  br label %97

97:                                               ; preds = %101, %92
  %98 = load ptr, ptr %8, align 8
  %99 = load ptr, ptr %9, align 8
  %100 = icmp ult ptr %98, %99
  br i1 %100, label %101, label %104

101:                                              ; preds = %97
  %102 = load ptr, ptr %8, align 8
  %103 = getelementptr inbounds nuw i64, ptr %102, i32 1
  store ptr %103, ptr %8, align 8
  store i64 0, ptr %102, align 8
  br label %97, !llvm.loop !15

104:                                              ; preds = %97
  call void @llvm.lifetime.end.p0(i64 8, ptr %9) #8
  call void @llvm.lifetime.end.p0(i64 8, ptr %8) #8
  br label %110

105:                                              ; preds = %89, %86, %82, %69
  %106 = load ptr, ptr %5, align 8
  %107 = load i32, ptr %6, align 4
  %108 = trunc i32 %107 to i8
  %109 = load i64, ptr %7, align 8
  call void @llvm.memset.p0.i64(ptr align 1 %106, i8 %108, i64 %109, i1 false)
  br label %110

110:                                              ; preds = %105, %104
  call void @llvm.lifetime.end.p0(i64 8, ptr %7) #8
  call void @llvm.lifetime.end.p0(i64 4, ptr %6) #8
  call void @llvm.lifetime.end.p0(i64 8, ptr %5) #8
  br label %111

111:                                              ; preds = %110
  br label %112

112:                                              ; preds = %111
  br label %113

113:                                              ; preds = %112
  call void @llvm.lifetime.start.p0(i64 8, ptr %10) #8
  %114 = load ptr, ptr %4, align 8
  %115 = getelementptr inbounds nuw %struct.ExprContext, ptr %114, i32 0, i32 9
  %116 = load ptr, ptr %115, align 8
  store ptr %116, ptr %10, align 8
  call void @llvm.lifetime.start.p0(i64 4, ptr %11) #8
  store i32 0, ptr %11, align 4
  call void @llvm.lifetime.start.p0(i64 8, ptr %12) #8
  %117 = load ptr, ptr %2, align 8
  %118 = getelementptr inbounds nuw %struct.WindowAggState, ptr %117, i32 0, i32 2
  %119 = load i32, ptr %118, align 8
  %120 = sext i32 %119 to i64
  %121 = mul i64 1, %120
  store i64 %121, ptr %12, align 8
  %122 = load ptr, ptr %10, align 8
  %123 = ptrtoint ptr %122 to i64
  %124 = and i64 %123, 7
  %125 = icmp eq i64 %124, 0
  br i1 %125, label %126, label %149

126:                                              ; preds = %113
  %127 = load i64, ptr %12, align 8
  %128 = and i64 %127, 7
  %129 = icmp eq i64 %128, 0
  br i1 %129, label %130, label %149

130:                                              ; preds = %126
  %131 = load i32, ptr %11, align 4
  %132 = icmp eq i32 %131, 0
  br i1 %132, label %133, label %149

133:                                              ; preds = %130
  %134 = load i64, ptr %12, align 8
  %135 = icmp ule i64 %134, 1024
  br i1 %135, label %136, label %149

136:                                              ; preds = %133
  call void @llvm.lifetime.start.p0(i64 8, ptr %13) #8
  %137 = load ptr, ptr %10, align 8
  store ptr %137, ptr %13, align 8
  call void @llvm.lifetime.start.p0(i64 8, ptr %14) #8
  %138 = load ptr, ptr %13, align 8
  %139 = load i64, ptr %12, align 8
  %140 = getelementptr inbounds nuw i8, ptr %138, i64 %139
  store ptr %140, ptr %14, align 8
  br label %141

141:                                              ; preds = %145, %136
  %142 = load ptr, ptr %13, align 8
  %143 = load ptr, ptr %14, align 8
  %144 = icmp ult ptr %142, %143
  br i1 %144, label %145, label %148

145:                                              ; preds = %141
  %146 = load ptr, ptr %13, align 8
  %147 = getelementptr inbounds nuw i64, ptr %146, i32 1
  store ptr %147, ptr %13, align 8
  store i64 0, ptr %146, align 8
  br label %141, !llvm.loop !16

148:                                              ; preds = %141
  call void @llvm.lifetime.end.p0(i64 8, ptr %14) #8
  call void @llvm.lifetime.end.p0(i64 8, ptr %13) #8
  br label %154

149:                                              ; preds = %133, %130, %126, %113
  %150 = load ptr, ptr %10, align 8
  %151 = load i32, ptr %11, align 4
  %152 = trunc i32 %151 to i8
  %153 = load i64, ptr %12, align 8
  call void @llvm.memset.p0.i64(ptr align 1 %150, i8 %152, i64 %153, i1 false)
  br label %154

154:                                              ; preds = %149, %148
  call void @llvm.lifetime.end.p0(i64 8, ptr %12) #8
  call void @llvm.lifetime.end.p0(i64 4, ptr %11) #8
  call void @llvm.lifetime.end.p0(i64 8, ptr %10) #8
  br label %155

155:                                              ; preds = %154
  br label %156

156:                                              ; preds = %155
  %157 = load ptr, ptr %3, align 8
  %158 = getelementptr inbounds nuw %struct.PlanState, ptr %157, i32 0, i32 13
  %159 = load ptr, ptr %158, align 8
  %160 = icmp eq ptr %159, null
  br i1 %160, label %161, label %163

161:                                              ; preds = %156
  %162 = load ptr, ptr %3, align 8
  call void @ExecReScan(ptr noundef %162)
  br label %163

163:                                              ; preds = %161, %156
  call void @llvm.lifetime.end.p0(i64 8, ptr %4) #8
  call void @llvm.lifetime.end.p0(i64 8, ptr %3) #8
  ret void
}