; Function Attrs: nounwind uwtable
define dso_local void @ExecReScanWindowAgg(ptr noundef captures(none) initializes((352, 356), (576, 577)) %0) local_unnamed_addr #0 {
  %2 = getelementptr inbounds nuw i8, ptr %0, i64 72
  %3 = load ptr, ptr %2, align 8
  %4 = getelementptr inbounds nuw i8, ptr %0, i64 128
  %5 = load ptr, ptr %4, align 8
  %6 = getelementptr inbounds nuw i8, ptr %0, i64 352
  store i32 1, ptr %6, align 8
  %7 = getelementptr inbounds nuw i8, ptr %0, i64 576
  store i8 1, ptr %7, align 8
  tail call fastcc void @release_partition(ptr noundef %0)
  %8 = getelementptr inbounds nuw i8, ptr %0, i64 216
  %9 = load ptr, ptr %8, align 8
  %10 = getelementptr inbounds nuw i8, ptr %9, i64 8
  %11 = load ptr, ptr %10, align 8
  %12 = getelementptr inbounds nuw i8, ptr %11, i64 24
  %13 = load ptr, ptr %12, align 8
  tail call void %13(ptr noundef %9) #9
  %14 = getelementptr inbounds nuw i8, ptr %0, i64 584
  %15 = load ptr, ptr %14, align 8
  %16 = getelementptr inbounds nuw i8, ptr %15, i64 8
  %17 = load ptr, ptr %16, align 8
  %18 = getelementptr inbounds nuw i8, ptr %17, i64 24
  %19 = load ptr, ptr %18, align 8
  tail call void %19(ptr noundef %15) #9
  %20 = getelementptr inbounds nuw i8, ptr %0, i64 608
  %21 = load ptr, ptr %20, align 8
  %22 = getelementptr inbounds nuw i8, ptr %21, i64 8
  %23 = load ptr, ptr %22, align 8
  %24 = getelementptr inbounds nuw i8, ptr %23, i64 24
  %25 = load ptr, ptr %24, align 8
  tail call void %25(ptr noundef %21) #9
  %26 = getelementptr inbounds nuw i8, ptr %0, i64 616
  %27 = load ptr, ptr %26, align 8
  %28 = getelementptr inbounds nuw i8, ptr %27, i64 8
  %29 = load ptr, ptr %28, align 8
  %30 = getelementptr inbounds nuw i8, ptr %29, i64 24
  %31 = load ptr, ptr %30, align 8
  tail call void %31(ptr noundef %27) #9
  %32 = getelementptr inbounds nuw i8, ptr %0, i64 624
  %33 = load ptr, ptr %32, align 8
  %34 = getelementptr inbounds nuw i8, ptr %33, i64 8
  %35 = load ptr, ptr %34, align 8
  %36 = getelementptr inbounds nuw i8, ptr %35, i64 24
  %37 = load ptr, ptr %36, align 8
  tail call void %37(ptr noundef %33) #9
  %38 = getelementptr inbounds nuw i8, ptr %0, i64 592
  %39 = load ptr, ptr %38, align 8
  %.not = icmp eq ptr %39, null
  br i1 %.not, label %45, label %40

40:                                               ; preds = %1
  %41 = getelementptr inbounds nuw i8, ptr %39, i64 8
  %42 = load ptr, ptr %41, align 8
  %43 = getelementptr inbounds nuw i8, ptr %42, i64 24
  %44 = load ptr, ptr %43, align 8
  tail call void %44(ptr noundef nonnull %39) #9
  br label %45

45:                                               ; preds = %40, %1
  %46 = getelementptr inbounds nuw i8, ptr %0, i64 600
  %47 = load ptr, ptr %46, align 8
  %.not57 = icmp eq ptr %47, null
  br i1 %.not57, label %53, label %48

48:                                               ; preds = %45
  %49 = getelementptr inbounds nuw i8, ptr %47, i64 8
  %50 = load ptr, ptr %49, align 8
  %51 = getelementptr inbounds nuw i8, ptr %50, i64 24
  %52 = load ptr, ptr %51, align 8
  tail call void %52(ptr noundef nonnull %47) #9
  br label %53

53:                                               ; preds = %45, %48
  %54 = getelementptr inbounds nuw i8, ptr %5, i64 64
  %55 = load ptr, ptr %54, align 8
  %56 = getelementptr inbounds nuw i8, ptr %0, i64 232
  %57 = load i32, ptr %56, align 8
  %58 = sext i32 %57 to i64
  %59 = shl nsw i64 %58, 3
  %60 = ptrtoint ptr %55 to i64
  %61 = and i64 %60, 7
  %62 = icmp eq i64 %61, 0
  %63 = icmp ult i64 %59, 1025
  %or.cond = select i1 %62, i1 %63, i1 false
  br i1 %or.cond, label %64, label %71

64:                                               ; preds = %53
  %.not62 = icmp eq i32 %57, 0
  br i1 %.not62, label %.loopexit58, label %.lr.ph.preheader

.lr.ph.preheader:                                 ; preds = %64
  %65 = add i64 %59, %60
  %66 = add i64 %60, 8
  %umax = tail call i64 @llvm.umax.i64(i64 %65, i64 %66)
  %67 = xor i64 %60, -1
  %68 = add i64 %umax, %67
  %69 = and i64 %68, -8
  %70 = add i64 %69, 8
  tail call void @llvm.memset.p0.i64(ptr align 8 %55, i8 0, i64 %70, i1 false)
  br label %.loopexit58

71:                                               ; preds = %53
  tail call void @llvm.memset.p0.i64(ptr align 1 %55, i8 0, i64 %59, i1 false)
  br label %.loopexit58

.loopexit58:                                      ; preds = %.lr.ph.preheader, %64, %71
  %72 = getelementptr inbounds nuw i8, ptr %5, i64 72
  %73 = load ptr, ptr %72, align 8
  %74 = load i32, ptr %56, align 8
  %75 = sext i32 %74 to i64
  %76 = ptrtoint ptr %73 to i64
  %77 = and i64 %76, 7
  %78 = icmp eq i64 %77, 0
  br i1 %78, label %79, label %90

79:                                               ; preds = %.loopexit58
  %80 = and i32 %74, 7
  %81 = icmp eq i32 %80, 0
  %82 = icmp ult i32 %74, 1025
  %or.cond7 = and i1 %82, %81
  br i1 %or.cond7, label %83, label %90

83:                                               ; preds = %79
  %.not63 = icmp eq i32 %74, 0
  br i1 %.not63, label %.loopexit, label %.lr.ph61.preheader

.lr.ph61.preheader:                               ; preds = %83
  %84 = add i64 %76, %75
  %85 = add i64 %76, 8
  %umax64 = tail call i64 @llvm.umax.i64(i64 %84, i64 %85)
  %86 = xor i64 %76, -1
  %87 = add i64 %umax64, %86
  %88 = and i64 %87, -8
  %89 = add i64 %88, 8
  tail call void @llvm.memset.p0.i64(ptr align 8 %73, i8 0, i64 %89, i1 false)
  br label %.loopexit

90:                                               ; preds = %79, %.loopexit58
  tail call void @llvm.memset.p0.i64(ptr align 1 %73, i8 0, i64 %75, i1 false)
  br label %.loopexit

.loopexit:                                        ; preds = %.lr.ph61.preheader, %83, %90
  %91 = getelementptr inbounds nuw i8, ptr %3, i64 104
  %92 = load ptr, ptr %91, align 8
  %93 = icmp eq ptr %92, null
  br i1 %93, label %94, label %95

94:                                               ; preds = %.loopexit
  tail call void @ExecReScan(ptr noundef nonnull %3) #9
  br label %95

95:                                               ; preds = %94, %.loopexit
  ret void
}